; Function Attrs: nounwind uwtable
define ptr @l_Std_Range_forIn_x27_loop___at_Lean_Elab_WF_GuessLex_formatTable___spec__5(ptr readnone captures(none) %0, ptr noundef readonly captures(none) %1, ptr noundef %2, ptr noundef %3, ptr readnone captures(none) %4, ptr readnone captures(none) %5) local_unnamed_addr #1 {
  %7 = getelementptr inbounds nuw i8, ptr %1, i64 16
  %.in = getelementptr inbounds nuw i8, ptr %1, i64 24
  br label %lean_dec.exit20

lean_dec.exit20:                                  ; preds = %lean_dec.exit20.backedge, %6
  %.017 = phi ptr [ %3, %6 ], [ %.017.be, %lean_dec.exit20.backedge ]
  %.015 = phi ptr [ %2, %6 ], [ %.015.be, %lean_dec.exit20.backedge ]
  %8 = load ptr, ptr %7, align 8, !tbaa !4
  %9 = ptrtoint ptr %.017 to i64
  %10 = and i64 %9, 1
  %.not = icmp eq i64 %10, 0
  br i1 %.not, label %lean_nat_lt.exit.thread38, label %11, !prof !15

11:                                               ; preds = %lean_dec.exit20
  %12 = ptrtoint ptr %8 to i64
  %13 = and i64 %12, 1
  %.not41 = icmp eq i64 %13, 0
  br i1 %.not41, label %lean_nat_lt.exit, label %lean_nat_lt.exit.thread, !prof !15

lean_nat_lt.exit:                                 ; preds = %11
  %14 = tail call zeroext i1 @lean_nat_big_lt(ptr noundef %.017, ptr noundef %8) #8
  br i1 %14, label %.thread27, label %.thread

lean_nat_lt.exit.thread38:                        ; preds = %lean_dec.exit20
  %15 = tail call zeroext i1 @lean_nat_big_lt(ptr noundef %.017, ptr noundef %8) #8
  br i1 %15, label %40, label %16

lean_nat_lt.exit.thread:                          ; preds = %11
  %.not42 = icmp ult ptr %.017, %8
  br i1 %.not42, label %.thread27, label %.thread

16:                                               ; preds = %lean_nat_lt.exit.thread38
  %17 = load i32, ptr %.017, align 4, !tbaa !8
  %18 = icmp sgt i32 %17, 1
  br i1 %18, label %19, label %21, !prof !11

19:                                               ; preds = %16
  %20 = add nsw i32 %17, -1
  store i32 %20, ptr %.017, align 4, !tbaa !8
  br label %.thread

21:                                               ; preds = %16
  %.not.i = icmp eq i32 %17, 0
  br i1 %.not.i, label %.thread, label %22

22:                                               ; preds = %21
  tail call void @lean_dec_ref_cold(ptr noundef nonnull %.017) #8
  br label %.thread

.thread27:                                        ; preds = %lean_nat_lt.exit, %lean_nat_lt.exit.thread
  %23 = load ptr, ptr @l_Std_Range_forIn_x27_loop___at_Lean_Elab_WF_GuessLex_formatTable___spec__4___closed__1, align 8, !tbaa !4
  %24 = tail call ptr @lean_string_append(ptr noundef %.015, ptr noundef %23) #8
  %25 = load ptr, ptr %.in, align 8, !tbaa !4
  %26 = ptrtoint ptr %25 to i64
  %27 = and i64 %26, 1
  %.not43 = icmp eq i64 %27, 0
  br i1 %.not43, label %lean_nat_add.exit.thread30, label %29, !prof !15

lean_nat_add.exit.thread30:                       ; preds = %.thread27
  %28 = tail call ptr @lean_nat_big_add(ptr noundef %.017, ptr noundef %25) #8
  br label %lean_dec.exit20.backedge

29:                                               ; preds = %.thread27
  %30 = lshr i64 %9, 1
  %31 = lshr i64 %26, 1
  %32 = add nuw i64 %31, %30
  %33 = icmp sgt i64 %32, -1
  br i1 %33, label %34, label %38, !prof !11

34:                                               ; preds = %29
  %35 = shl nuw i64 %32, 1
  %36 = or disjoint i64 %35, 1
  %37 = inttoptr i64 %36 to ptr
  br label %lean_dec.exit20.backedge

lean_dec.exit20.backedge:                         ; preds = %34, %38, %lean_nat_add.exit.thread30, %47, %49, %50
  %.017.be = phi ptr [ %28, %lean_nat_add.exit.thread30 ], [ %44, %47 ], [ %44, %49 ], [ %44, %50 ], [ %39, %38 ], [ %37, %34 ]
  %.015.be = phi ptr [ %24, %lean_nat_add.exit.thread30 ], [ %42, %47 ], [ %42, %49 ], [ %42, %50 ], [ %24, %38 ], [ %24, %34 ]
  br label %lean_dec.exit20

38:                                               ; preds = %29
  %39 = tail call ptr @lean_big_usize_to_nat(i64 noundef range(i64 0, -1) %32) #8
  br label %lean_dec.exit20.backedge

40:                                               ; preds = %lean_nat_lt.exit.thread38
  %41 = load ptr, ptr @l_Std_Range_forIn_x27_loop___at_Lean_Elab_WF_GuessLex_formatTable___spec__4___closed__1, align 8, !tbaa !4
  %42 = tail call ptr @lean_string_append(ptr noundef %.015, ptr noundef %41) #8
  %43 = load ptr, ptr %.in, align 8, !tbaa !4
  %44 = tail call ptr @lean_nat_big_add(ptr noundef %.017, ptr noundef %43) #8
  %45 = load i32, ptr %.017, align 4, !tbaa !8
  %46 = icmp sgt i32 %45, 1
  br i1 %46, label %47, label %49, !prof !11

47:                                               ; preds = %40
  %48 = add nsw i32 %45, -1
  store i32 %48, ptr %.017, align 4, !tbaa !8
  br label %lean_dec.exit20.backedge

49:                                               ; preds = %40
  %.not.i21 = icmp eq i32 %45, 0
  br i1 %.not.i21, label %lean_dec.exit20.backedge, label %50

50:                                               ; preds = %49
  tail call void @lean_dec_ref_cold(ptr noundef nonnull %.017) #8
  br label %lean_dec.exit20.backedge

.thread:                                          ; preds = %lean_nat_lt.exit, %lean_nat_lt.exit.thread, %22, %21, %19
  ret ptr %.015
}